; Function Attrs: mustprogress nounwind uwtable
define hidden noundef i64 @jfr_get_type_id_from_string(ptr noundef %0, ptr nocapture noundef readnone %1, ptr noundef %2) local_unnamed_addr #0 {
  %4 = load ptr, ptr %0, align 8
  %5 = getelementptr inbounds i8, ptr %4, i64 1352
  %6 = load ptr, ptr %5, align 8
  %7 = tail call noundef ptr %6(ptr noundef nonnull %0, ptr noundef %2, ptr noundef null) #9
  %8 = tail call noundef i64 @_ZN7JfrType10name_to_idEPKc(ptr noundef %7)
  %9 = load ptr, ptr %0, align 8
  %10 = getelementptr inbounds i8, ptr %9, i64 1360
  %11 = load ptr, ptr %10, align 8
  tail call void %11(ptr noundef nonnull %0, ptr noundef %2, ptr noundef %7) #9
  ret i64 %8
}